target datalayout = "e-m:e-p270:32:32-p271:32:32-p272:64:64-i64:64-i128:128-f80:128-n8:16:32:64-S128"
target triple = "x86_64-pc-linux-gnu"

%"struct.icu_77::units::Factor" = type { double, double, double, i8, [15 x i32] }

; Function Attrs: inlinehint mustprogress nounwind uwtable
define linkonce_odr noundef nonnull align 8 dereferenceable(8) ptr @_ZSt3maxIdERKT_S2_S2_(ptr noundef nonnull align 8 dereferenceable(8) %0, ptr noundef nonnull align 8 dereferenceable(8) %1) #2 comdat {
  %3 = alloca ptr, align 8
  %4 = alloca ptr, align 8
  %5 = alloca ptr, align 8
  store ptr %0, ptr %4, align 8, !tbaa !34
  store ptr %1, ptr %5, align 8, !tbaa !34
  %6 = load ptr, ptr %4, align 8, !tbaa !34
  %7 = load double, ptr %6, align 8, !tbaa !32
  %8 = load ptr, ptr %5, align 8, !tbaa !34
  %9 = load double, ptr %8, align 8, !tbaa !32
  %10 = fcmp olt double %7, %9
  br i1 %10, label %11, label %13

11:                                               ; preds = %2
  %12 = load ptr, ptr %5, align 8, !tbaa !34
  store ptr %12, ptr %3, align 8
  br label %15

13:                                               ; preds = %2
  %14 = load ptr, ptr %4, align 8, !tbaa !34
  store ptr %14, ptr %3, align 8
  br label %15

15:                                               ; preds = %13, %11
  %16 = load ptr, ptr %3, align 8
  ret ptr %16
}

; Function Attrs: mustprogress uwtable
define void @_ZN6icu_775units6Factor8divideByERKS1_(ptr noundef nonnull align 8 dereferenceable(88) %0, ptr noundef nonnull align 8 dereferenceable(88) %1) #1 align 2 {
  %3 = alloca ptr, align 8
  %4 = alloca ptr, align 8
  %5 = alloca i32, align 4
  store ptr %0, ptr %3, align 8, !tbaa !23
  store ptr %1, ptr %4, align 8, !tbaa !23
  %6 = load ptr, ptr %3, align 8
  %7 = load ptr, ptr %4, align 8, !tbaa !23
  %8 = getelementptr inbounds nuw %"struct.icu_77::units::Factor", ptr %7, i32 0, i32 1
  %9 = load double, ptr %8, align 8, !tbaa !29
  %10 = getelementptr inbounds nuw %"struct.icu_77::units::Factor", ptr %6, i32 0, i32 0
  %11 = load double, ptr %10, align 8, !tbaa !25
  %12 = fmul double %11, %9
  store double %12, ptr %10, align 8, !tbaa !25
  %13 = load ptr, ptr %4, align 8, !tbaa !23
  %14 = getelementptr inbounds nuw %"struct.icu_77::units::Factor", ptr %13, i32 0, i32 0
  %15 = load double, ptr %14, align 8, !tbaa !25
  %16 = getelementptr inbounds nuw %"struct.icu_77::units::Factor", ptr %6, i32 0, i32 1
  %17 = load double, ptr %16, align 8, !tbaa !29
  %18 = fmul double %17, %15
  store double %18, ptr %16, align 8, !tbaa !29
  call void @llvm.lifetime.start.p0(i64 4, ptr %5) #12
  store i32 0, ptr %5, align 4, !tbaa !14
  br label %19

19:                                               ; preds = %36, %2
  %20 = load i32, ptr %5, align 4, !tbaa !14
  %21 = icmp slt i32 %20, 15
  br i1 %21, label %23, label %22

22:                                               ; preds = %19
  call void @llvm.lifetime.end.p0(i64 4, ptr %5) #12
  br label %39

23:                                               ; preds = %19
  %24 = load ptr, ptr %4, align 8, !tbaa !23
  %25 = getelementptr inbounds nuw %"struct.icu_77::units::Factor", ptr %24, i32 0, i32 4
  %26 = load i32, ptr %5, align 4, !tbaa !14
  %27 = sext i32 %26 to i64
  %28 = getelementptr inbounds [15 x i32], ptr %25, i64 0, i64 %27
  %29 = load i32, ptr %28, align 4, !tbaa !14
  %30 = getelementptr inbounds nuw %"struct.icu_77::units::Factor", ptr %6, i32 0, i32 4
  %31 = load i32, ptr %5, align 4, !tbaa !14
  %32 = sext i32 %31 to i64
  %33 = getelementptr inbounds [15 x i32], ptr %30, i64 0, i64 %32
  %34 = load i32, ptr %33, align 4, !tbaa !14
  %35 = sub nsw i32 %34, %29
  store i32 %35, ptr %33, align 4, !tbaa !14
  br label %36

36:                                               ; preds = %23
  %37 = load i32, ptr %5, align 4, !tbaa !14
  %38 = add nsw i32 %37, 1
  store i32 %38, ptr %5, align 4, !tbaa !14
  br label %19, !llvm.loop !36

39:                                               ; preds = %22
  %40 = load ptr, ptr %4, align 8, !tbaa !23
  %41 = getelementptr inbounds nuw %"struct.icu_77::units::Factor", ptr %40, i32 0, i32 2
  %42 = getelementptr inbounds nuw %"struct.icu_77::units::Factor", ptr %6, i32 0, i32 2
  %43 = call noundef nonnull align 8 dereferenceable(8) ptr @_ZSt3maxIdERKT_S2_S2_(ptr noundef nonnull align 8 dereferenceable(8) %41, ptr noundef nonnull align 8 dereferenceable(8) %42)
  %44 = load double, ptr %43, align 8, !tbaa !32
  %45 = getelementptr inbounds nuw %"struct.icu_77::units::Factor", ptr %6, i32 0, i32 2
  store double %44, ptr %45, align 8, !tbaa !33
  ret void
}